target datalayout = "e-m:e-p270:32:32-p271:32:32-p272:64:64-i64:64-i128:128-f80:128-n8:16:32:64-S128"
target triple = "x86_64-unknown-linux-gnu"

@.str.18 = private unnamed_addr constant [15 x i8] c"tcache.destroy\00", align 1

; Function Attrs: mustprogress nounwind uwtable
define void @_ZN7rocksdb23JemallocNodumpAllocator26DestroyThreadSpecificCacheEPv(ptr noundef %ptr) #3 align 2 {
entry:
  %ptr.addr = alloca ptr, align 8
  %tcache_index = alloca ptr, align 8
  %tcache_index_size = alloca i64, align 8
  %ret = alloca i32, align 4
  store ptr %ptr, ptr %ptr.addr, align 8
  %0 = load ptr, ptr %ptr.addr, align 8
  store ptr %0, ptr %tcache_index, align 8
  store i64 4, ptr %tcache_index_size, align 8
  %1 = load ptr, ptr %tcache_index, align 8
  %2 = load i64, ptr %tcache_index_size, align 8
  %call = call i32 @mallctl(ptr noundef @.str.18, ptr noundef null, ptr noundef null, ptr noundef %1, i64 noundef %2) #4
  store i32 %call, ptr %ret, align 4
  %3 = load ptr, ptr %tcache_index, align 8
  %isnull = icmp eq ptr %3, null
  br i1 %isnull, label %delete.end, label %delete.notnull

delete.notnull:                                   ; preds = %entry
  call void @_ZdlPv(ptr noundef %3) #18
  br label %delete.end

delete.end:                                       ; preds = %delete.notnull, %entry
  ret void
}