; Function Attrs: mustprogress nounwind uwtable
define void @_ZN7rocksdb23JemallocNodumpAllocator26DestroyThreadSpecificCacheEPv(ptr noundef %ptr) #2 align 2 {
entry:
  %call = tail call i32 @mallctl(ptr noundef nonnull @.str.18, ptr noundef null, ptr noundef null, ptr noundef %ptr, i64 noundef 4) #24
  %isnull = icmp eq ptr %ptr, null
  br i1 %isnull, label %delete.end, label %delete.notnull

delete.notnull:                                   ; preds = %entry
  tail call void @_ZdlPv(ptr noundef nonnull %ptr) #26
  br label %delete.end

delete.end:                                       ; preds = %delete.notnull, %entry
  ret void
}